target datalayout = "e-m:e-p270:32:32-p271:32:32-p272:64:64-i64:64-i128:128-f80:128-n8:16:32:64-S128"
target triple = "x86_64-pc-linux-gnu"

%struct.AVFilterContext = type { ptr, ptr, ptr, ptr, ptr, i32, ptr, ptr, i32, ptr, ptr, i32, i32, ptr, ptr, ptr, ptr, i32, ptr, i32, i32 }
%struct.FieldHintContext = type { ptr, ptr, ptr, i32, [3 x ptr], i64, i32, i32, [4 x i32], [4 x i32] }

@.str.24 = private unnamed_addr constant [24 x i8] c"Hint file must be set.\0A\00", align 1
@.str.25 = private unnamed_addr constant [2 x i8] c"r\00", align 1
@.str.26 = private unnamed_addr constant [8 x i8] c"%s: %s\0A\00", align 1

; Function Attrs: inlinehint nounwind uwtable
define internal ptr @av_make_error_string(ptr noundef %0, i64 noundef %1, i32 noundef %2) #3 {
  %4 = alloca ptr, align 8
  %5 = alloca i64, align 8
  %6 = alloca i32, align 4
  store ptr %0, ptr %4, align 8, !tbaa !62
  store i64 %1, ptr %5, align 8, !tbaa !50
  store i32 %2, ptr %6, align 4, !tbaa !29
  %7 = load i32, ptr %6, align 4, !tbaa !29
  %8 = load ptr, ptr %4, align 8, !tbaa !62
  %9 = load i64, ptr %5, align 8, !tbaa !50
  %10 = call i32 @av_strerror(i32 noundef %7, ptr noundef %8, i64 noundef %9)
  %11 = load ptr, ptr %4, align 8, !tbaa !62
  ret ptr %11
}

; Function Attrs: cold nounwind optsize uwtable
define internal i32 @init(ptr noundef %0) #0 {
  %2 = alloca i32, align 4
  %3 = alloca ptr, align 8
  %4 = alloca ptr, align 8
  %5 = alloca i32, align 4
  %6 = alloca i32, align 4
  %7 = alloca [64 x i8], align 1
  store ptr %0, ptr %3, align 8, !tbaa !4
  call void @llvm.lifetime.start.p0(i64 8, ptr %4) #10
  %8 = load ptr, ptr %3, align 8, !tbaa !4
  %9 = getelementptr inbounds nuw %struct.AVFilterContext, ptr %8, i32 0, i32 9
  %10 = load ptr, ptr %9, align 8, !tbaa !9
  store ptr %10, ptr %4, align 8, !tbaa !22
  call void @llvm.lifetime.start.p0(i64 4, ptr %5) #10
  %11 = load ptr, ptr %4, align 8, !tbaa !22
  %12 = getelementptr inbounds nuw %struct.FieldHintContext, ptr %11, i32 0, i32 1
  %13 = load ptr, ptr %12, align 8, !tbaa !24
  %14 = icmp ne ptr %13, null
  br i1 %14, label %17, label %15

15:                                               ; preds = %1
  %16 = load ptr, ptr %3, align 8, !tbaa !4
  call void (ptr, i32, ptr, ...) @av_log(ptr noundef %16, i32 noundef 16, ptr noundef @.str.24)
  store i32 -22, ptr %2, align 4
  store i32 1, ptr %6, align 4
  br label %41

17:                                               ; preds = %1
  %18 = load ptr, ptr %4, align 8, !tbaa !22
  %19 = getelementptr inbounds nuw %struct.FieldHintContext, ptr %18, i32 0, i32 1
  %20 = load ptr, ptr %19, align 8, !tbaa !24
  %21 = call ptr @avpriv_fopen_utf8(ptr noundef %20, ptr noundef @.str.25)
  %22 = load ptr, ptr %4, align 8, !tbaa !22
  %23 = getelementptr inbounds nuw %struct.FieldHintContext, ptr %22, i32 0, i32 2
  store ptr %21, ptr %23, align 8, !tbaa !28
  %24 = load ptr, ptr %4, align 8, !tbaa !22
  %25 = getelementptr inbounds nuw %struct.FieldHintContext, ptr %24, i32 0, i32 2
  %26 = load ptr, ptr %25, align 8, !tbaa !28
  %27 = icmp ne ptr %26, null
  br i1 %27, label %40, label %28

28:                                               ; preds = %17
  %29 = call ptr @__errno_location() #11
  %30 = load i32, ptr %29, align 4, !tbaa !29
  %31 = sub nsw i32 0, %30
  store i32 %31, ptr %5, align 4, !tbaa !29
  %32 = load ptr, ptr %3, align 8, !tbaa !4
  %33 = load ptr, ptr %4, align 8, !tbaa !22
  %34 = getelementptr inbounds nuw %struct.FieldHintContext, ptr %33, i32 0, i32 1
  %35 = load ptr, ptr %34, align 8, !tbaa !24
  call void @llvm.memset.p0.i64(ptr align 1 %7, i8 0, i64 64, i1 false)
  %36 = getelementptr inbounds [64 x i8], ptr %7, i64 0, i64 0
  %37 = load i32, ptr %5, align 4, !tbaa !29
  %38 = call ptr @av_make_error_string(ptr noundef %36, i64 noundef 64, i32 noundef %37)
  call void (ptr, i32, ptr, ...) @av_log(ptr noundef %32, i32 noundef 16, ptr noundef @.str.26, ptr noundef %35, ptr noundef %38)
  %39 = load i32, ptr %5, align 4, !tbaa !29
  store i32 %39, ptr %2, align 4
  store i32 1, ptr %6, align 4
  br label %41

40:                                               ; preds = %17
  store i32 0, ptr %2, align 4
  store i32 1, ptr %6, align 4
  br label %41

41:                                               ; preds = %40, %28, %15
  call void @llvm.lifetime.end.p0(i64 4, ptr %5) #10
  call void @llvm.lifetime.end.p0(i64 8, ptr %4) #10
  %42 = load i32, ptr %2, align 4
  ret i32 %42
}