; Function Attrs: cold nounwind optsize uwtable
define internal range(i32 -2147483647, -2147483648) i32 @init(ptr noundef %0) #0 {
  %2 = alloca [64 x i8], align 1
  %3 = getelementptr inbounds nuw i8, ptr %0, i64 72
  %4 = load ptr, ptr %3, align 8, !tbaa !4
  %5 = getelementptr inbounds nuw i8, ptr %4, i64 8
  %6 = load ptr, ptr %5, align 8, !tbaa !20
  %.not = icmp eq ptr %6, null
  br i1 %.not, label %7, label %8

7:                                                ; preds = %1
  tail call void (ptr, i32, ptr, ...) @av_log(ptr noundef nonnull %0, i32 noundef 16, ptr noundef nonnull @.str.24) #9
  br label %17

8:                                                ; preds = %1
  %9 = tail call ptr @avpriv_fopen_utf8(ptr noundef nonnull %6, ptr noundef nonnull @.str.25) #9
  %10 = getelementptr inbounds nuw i8, ptr %4, i64 16
  store ptr %9, ptr %10, align 8, !tbaa !24
  %.not11 = icmp eq ptr %9, null
  br i1 %.not11, label %11, label %17

11:                                               ; preds = %8
  %12 = tail call ptr @__errno_location() #10
  %13 = load i32, ptr %12, align 4, !tbaa !25
  %14 = sub nsw i32 0, %13
  %15 = load ptr, ptr %5, align 8, !tbaa !20
  call void @llvm.memset.p0.i64(ptr noundef nonnull align 1 dereferenceable(64) %2, i8 0, i64 64, i1 false)
  %16 = call i32 @av_strerror(i32 noundef range(i32 -2147483647, -2147483648) %14, ptr noundef nonnull %2, i64 noundef 64) #9
  call void (ptr, i32, ptr, ...) @av_log(ptr noundef nonnull %0, i32 noundef 16, ptr noundef nonnull @.str.26, ptr noundef %15, ptr noundef nonnull %2) #9
  br label %17

17:                                               ; preds = %8, %11, %7
  %.0 = phi i32 [ %14, %11 ], [ -22, %7 ], [ 0, %8 ]
  ret i32 %.0
}